target datalayout = "e-m:e-p270:32:32-p271:32:32-p272:64:64-i64:64-i128:128-f80:128-n8:16:32:64-S128"
target triple = "x86_64-pc-linux-gnu"

@.str.4 = private unnamed_addr constant [1 x i8] zeroinitializer, align 1
@.str.5 = private unnamed_addr constant [6 x i8] c"%s%ld\00", align 1
@.str.6 = private unnamed_addr constant [10 x i8] c"%s%ld-%ld\00", align 1
@.str.7 = private unnamed_addr constant [2 x i8] c",\00", align 1

; Function Attrs: nounwind uwtable
define dso_local ptr @bit_fmt_range(ptr noundef %0, i32 noundef %1, i32 noundef %2) #0 {
  %4 = alloca ptr, align 8
  %5 = alloca i32, align 4
  %6 = alloca i32, align 4
  %7 = alloca i32, align 4
  %8 = alloca i64, align 8
  %9 = alloca i64, align 8
  %10 = alloca i64, align 8
  %11 = alloca ptr, align 8
  %12 = alloca ptr, align 8
  %13 = alloca ptr, align 8
  store ptr %0, ptr %4, align 8
  store i32 %1, ptr %5, align 4
  store i32 %2, ptr %6, align 4
  call void @llvm.lifetime.start.p0(i64 4, ptr %7) #12
  call void @llvm.lifetime.start.p0(i64 8, ptr %8) #12
  call void @llvm.lifetime.start.p0(i64 8, ptr %9) #12
  call void @llvm.lifetime.start.p0(i64 8, ptr %10) #12
  call void @llvm.lifetime.start.p0(i64 8, ptr %11) #12
  store ptr null, ptr %11, align 8
  call void @llvm.lifetime.start.p0(i64 8, ptr %12) #12
  store ptr null, ptr %12, align 8
  call void @llvm.lifetime.start.p0(i64 8, ptr %13) #12
  store ptr @.str.4, ptr %13, align 8
  br label %14

14:                                               ; preds = %3
  br label %15

15:                                               ; preds = %14
  br label %16

16:                                               ; preds = %15
  %17 = load ptr, ptr %4, align 8
  %18 = getelementptr inbounds i64, ptr %17, i64 1
  %19 = load i64, ptr %18, align 8
  %20 = load i32, ptr %5, align 4
  %21 = load i32, ptr %6, align 4
  %22 = add nsw i32 %20, %21
  %23 = sext i32 %22 to i64
  %24 = icmp slt i64 %19, %23
  br i1 %24, label %25, label %29

25:                                               ; preds = %16
  %26 = load ptr, ptr %4, align 8
  %27 = getelementptr inbounds i64, ptr %26, i64 1
  %28 = load i64, ptr %27, align 8
  br label %34

29:                                               ; preds = %16
  %30 = load i32, ptr %5, align 4
  %31 = load i32, ptr %6, align 4
  %32 = add nsw i32 %30, %31
  %33 = sext i32 %32 to i64
  br label %34

34:                                               ; preds = %29, %25
  %35 = phi i64 [ %28, %25 ], [ %33, %29 ]
  store i64 %35, ptr %9, align 8
  %36 = load i32, ptr %5, align 4
  %37 = sext i32 %36 to i64
  store i64 %37, ptr %10, align 8
  br label %38

38:                                               ; preds = %119, %53, %34
  %39 = load i64, ptr %10, align 8
  %40 = load i64, ptr %9, align 8
  %41 = icmp slt i64 %39, %40
  br i1 %41, label %42, label %122

42:                                               ; preds = %38
  %43 = load i64, ptr %10, align 8
  %44 = ashr i64 %43, 6
  %45 = add nsw i64 %44, 2
  %46 = trunc i64 %45 to i32
  store i32 %46, ptr %7, align 4
  %47 = load ptr, ptr %4, align 8
  %48 = load i32, ptr %7, align 4
  %49 = sext i32 %48 to i64
  %50 = getelementptr inbounds i64, ptr %47, i64 %49
  %51 = load i64, ptr %50, align 8
  %52 = icmp eq i64 %51, 0
  br i1 %52, label %53, label %56

53:                                               ; preds = %42
  %54 = load i64, ptr %10, align 8
  %55 = add i64 %54, 64
  store i64 %55, ptr %10, align 8
  br label %38, !llvm.loop !51

56:                                               ; preds = %42
  %57 = load ptr, ptr %4, align 8
  %58 = load i64, ptr %10, align 8
  %59 = ashr i64 %58, 6
  %60 = add nsw i64 %59, 2
  %61 = getelementptr inbounds i64, ptr %57, i64 %60
  %62 = load i64, ptr %61, align 8
  %63 = load i64, ptr %10, align 8
  %64 = and i64 %63, 63
  %65 = shl i64 1, %64
  %66 = and i64 %62, %65
  %67 = icmp ne i64 %66, 0
  br i1 %67, label %68, label %69

68:                                               ; preds = %56
  br i1 true, label %70, label %119

69:                                               ; preds = %56
  br i1 false, label %70, label %119

70:                                               ; preds = %69, %68
  %71 = load i64, ptr %10, align 8
  store i64 %71, ptr %8, align 8
  br label %72

72:                                               ; preds = %95, %70
  %73 = load i64, ptr %10, align 8
  %74 = add nsw i64 %73, 1
  %75 = load i64, ptr %9, align 8
  %76 = icmp slt i64 %74, %75
  br i1 %76, label %77, label %93

77:                                               ; preds = %72
  %78 = load ptr, ptr %4, align 8
  %79 = load i64, ptr %10, align 8
  %80 = add nsw i64 %79, 1
  %81 = ashr i64 %80, 6
  %82 = add nsw i64 %81, 2
  %83 = getelementptr inbounds i64, ptr %78, i64 %82
  %84 = load i64, ptr %83, align 8
  %85 = load i64, ptr %10, align 8
  %86 = add nsw i64 %85, 1
  %87 = and i64 %86, 63
  %88 = shl i64 1, %87
  %89 = and i64 %84, %88
  %90 = icmp ne i64 %89, 0
  %91 = select i1 %90, i32 1, i32 0
  %92 = icmp ne i32 %91, 0
  br label %93

93:                                               ; preds = %77, %72
  %94 = phi i1 [ false, %72 ], [ %92, %77 ]
  br i1 %94, label %95, label %98

95:                                               ; preds = %93
  %96 = load i64, ptr %10, align 8
  %97 = add nsw i64 %96, 1
  store i64 %97, ptr %10, align 8
  br label %72, !llvm.loop !52

98:                                               ; preds = %93
  %99 = load i64, ptr %10, align 8
  %100 = load i64, ptr %8, align 8
  %101 = icmp eq i64 %99, %100
  br i1 %101, label %102, label %108

102:                                              ; preds = %98
  %103 = load ptr, ptr %13, align 8
  %104 = load i64, ptr %8, align 8
  %105 = load i32, ptr %5, align 4
  %106 = sext i32 %105 to i64
  %107 = sub nsw i64 %104, %106
  call void (ptr, ptr, ptr, ...) @_xstrfmtcatat(ptr noundef %11, ptr noundef %12, ptr noundef @.str.5, ptr noundef %103, i64 noundef %107)
  br label %118

108:                                              ; preds = %98
  %109 = load ptr, ptr %13, align 8
  %110 = load i64, ptr %8, align 8
  %111 = load i32, ptr %5, align 4
  %112 = sext i32 %111 to i64
  %113 = sub nsw i64 %110, %112
  %114 = load i64, ptr %10, align 8
  %115 = load i32, ptr %5, align 4
  %116 = sext i32 %115 to i64
  %117 = sub nsw i64 %114, %116
  call void (ptr, ptr, ptr, ...) @_xstrfmtcatat(ptr noundef %11, ptr noundef %12, ptr noundef @.str.6, ptr noundef %109, i64 noundef %113, i64 noundef %117)
  br label %118

118:                                              ; preds = %108, %102
  store ptr @.str.7, ptr %13, align 8
  br label %119

119:                                              ; preds = %118, %69, %68
  %120 = load i64, ptr %10, align 8
  %121 = add nsw i64 %120, 1
  store i64 %121, ptr %10, align 8
  br label %38, !llvm.loop !51

122:                                              ; preds = %38
  %123 = load ptr, ptr %11, align 8
  call void @llvm.lifetime.end.p0(i64 8, ptr %13) #12
  call void @llvm.lifetime.end.p0(i64 8, ptr %12) #12
  call void @llvm.lifetime.end.p0(i64 8, ptr %11) #12
  call void @llvm.lifetime.end.p0(i64 8, ptr %10) #12
  call void @llvm.lifetime.end.p0(i64 8, ptr %9) #12
  call void @llvm.lifetime.end.p0(i64 8, ptr %8) #12
  call void @llvm.lifetime.end.p0(i64 4, ptr %7) #12
  ret ptr %123
}