; Function Attrs: nounwind uwtable
define dso_local ptr @bit_fmt_range(ptr noundef readonly captures(none) %0, i32 noundef %1, i32 noundef %2) local_unnamed_addr #0 {
  %4 = alloca ptr, align 8
  %5 = alloca ptr, align 8
  call void @llvm.lifetime.start.p0(i64 8, ptr nonnull %4) #17
  store ptr null, ptr %4, align 8
  call void @llvm.lifetime.start.p0(i64 8, ptr nonnull %5) #17
  store ptr null, ptr %5, align 8
  %6 = getelementptr inbounds nuw i8, ptr %0, i64 8
  %7 = load i64, ptr %6, align 8
  %8 = add nsw i32 %2, %1
  %9 = sext i32 %8 to i64
  %. = tail call i64 @llvm.smin.i64(i64 %7, i64 %9)
  %10 = sext i32 %1 to i64
  %11 = icmp sgt i64 %., %10
  br i1 %11, label %.lr.ph.lr.ph, label %.outer._crit_edge

.lr.ph.lr.ph:                                     ; preds = %3
  %invariant.gep = getelementptr i8, ptr %0, i64 16
  br label %.lr.ph

.lr.ph:                                           ; preds = %.lr.ph.lr.ph, %.outer
  %.0.ph43 = phi ptr [ @.str.4, %.lr.ph.lr.ph ], [ %.1, %.outer ]
  %.033.ph42 = phi i64 [ %10, %.lr.ph.lr.ph ], [ %41, %.outer ]
  br label %12

12:                                               ; preds = %.lr.ph, %19
  %.03341 = phi i64 [ %.033.ph42, %.lr.ph ], [ %20, %19 ]
  %13 = ashr i64 %.03341, 6
  %14 = add nsw i64 %13, 2
  %sext = shl i64 %14, 32
  %15 = ashr exact i64 %sext, 29
  %16 = getelementptr inbounds i8, ptr %0, i64 %15
  %17 = load i64, ptr %16, align 8
  %18 = icmp eq i64 %17, 0
  br i1 %18, label %19, label %22

19:                                               ; preds = %12
  %20 = add nsw i64 %.03341, 64
  %21 = icmp slt i64 %20, %.
  br i1 %21, label %12, label %.outer._crit_edge, !llvm.loop !49

22:                                               ; preds = %12
  %23 = getelementptr inbounds i64, ptr %0, i64 %14
  %24 = load i64, ptr %23, align 8
  %25 = and i64 %.03341, 63
  %26 = shl nuw i64 1, %25
  %27 = and i64 %24, %26
  %.not = icmp eq i64 %27, 0
  br i1 %.not, label %.outer, label %.preheader

.preheader:                                       ; preds = %22, %30
  %.2 = phi i64 [ %28, %30 ], [ %.03341, %22 ]
  %28 = add nsw i64 %.2, 1
  %29 = icmp slt i64 %28, %.
  br i1 %29, label %30, label %.critedge

30:                                               ; preds = %.preheader
  %31 = ashr i64 %28, 6
  %gep = getelementptr i64, ptr %invariant.gep, i64 %31
  %32 = load i64, ptr %gep, align 8
  %33 = and i64 %28, 63
  %34 = shl nuw i64 1, %33
  %35 = and i64 %32, %34
  %.not39 = icmp eq i64 %35, 0
  br i1 %.not39, label %.critedge, label %.preheader, !llvm.loop !50

.critedge:                                        ; preds = %.preheader, %30
  %36 = icmp eq i64 %.2, %.03341
  %37 = sub nsw i64 %.03341, %10
  br i1 %36, label %38, label %39

38:                                               ; preds = %.critedge
  call void (ptr, ptr, ptr, ...) @_xstrfmtcatat(ptr noundef nonnull %4, ptr noundef nonnull %5, ptr noundef nonnull @.str.5, ptr noundef %.0.ph43, i64 noundef %37) #17
  br label %.outer

39:                                               ; preds = %.critedge
  %40 = sub nsw i64 %.2, %10
  call void (ptr, ptr, ptr, ...) @_xstrfmtcatat(ptr noundef nonnull %4, ptr noundef nonnull %5, ptr noundef nonnull @.str.6, ptr noundef %.0.ph43, i64 noundef %37, i64 noundef %40) #17
  br label %.outer

.outer:                                           ; preds = %38, %39, %22
  %.134 = phi i64 [ %.03341, %22 ], [ %.2, %39 ], [ %.03341, %38 ]
  %.1 = phi ptr [ %.0.ph43, %22 ], [ @.str.7, %39 ], [ @.str.7, %38 ]
  %41 = add nsw i64 %.134, 1
  %42 = icmp slt i64 %41, %.
  br i1 %42, label %.lr.ph, label %.outer._crit_edge, !llvm.loop !49

.outer._crit_edge:                                ; preds = %.outer, %19, %3
  %43 = load ptr, ptr %4, align 8
  call void @llvm.lifetime.end.p0(i64 8, ptr nonnull %5) #17
  call void @llvm.lifetime.end.p0(i64 8, ptr nonnull %4) #17
  ret ptr %43
}